target datalayout = "e-m:e-p270:32:32-p271:32:32-p272:64:64-i64:64-i128:128-f80:128-n8:16:32:64-S128"
target triple = "x86_64-pc-linux-gnu"

%"struct.nanogui::Array" = type { [2 x i32] }
%"class.nanogui::RenderPass" = type <{ %"class.nanogui::Object.base", [4 x i8], %"class.std::vector.0", i8, [7 x i8], %"class.std::vector.5", float, i8, [3 x i8], %"struct.nanogui::Array", %"struct.nanogui::Array", %"struct.nanogui::Array", i32, i8, [3 x i8], i32, [4 x i8], %"class.nanogui::ref", i8, [3 x i8], i32, [4 x i32], [4 x i32], i8, i8, i8, i8, i8, [3 x i8] }>
%"class.nanogui::Object.base" = type <{ ptr, %"struct.std::atomic" }>
%"struct.std::atomic" = type { %"struct.std::__atomic_base" }
%"struct.std::__atomic_base" = type { i32 }
%"class.std::vector.0" = type { %"struct.std::_Vector_base.1" }
%"struct.std::_Vector_base.1" = type { %"struct.std::_Vector_base<nanogui::ref<nanogui::Object>, std::allocator<nanogui::ref<nanogui::Object>>>::_Vector_impl" }
%"struct.std::_Vector_base<nanogui::ref<nanogui::Object>, std::allocator<nanogui::ref<nanogui::Object>>>::_Vector_impl" = type { %"struct.std::_Vector_base<nanogui::ref<nanogui::Object>, std::allocator<nanogui::ref<nanogui::Object>>>::_Vector_impl_data" }
%"struct.std::_Vector_base<nanogui::ref<nanogui::Object>, std::allocator<nanogui::ref<nanogui::Object>>>::_Vector_impl_data" = type { ptr, ptr, ptr }
%"class.std::vector.5" = type { %"struct.std::_Vector_base.6" }
%"struct.std::_Vector_base.6" = type { %"struct.std::_Vector_base<nanogui::Color, std::allocator<nanogui::Color>>::_Vector_impl" }
%"struct.std::_Vector_base<nanogui::Color, std::allocator<nanogui::Color>>::_Vector_impl" = type { %"struct.std::_Vector_base<nanogui::Color, std::allocator<nanogui::Color>>::_Vector_impl_data" }
%"struct.std::_Vector_base<nanogui::Color, std::allocator<nanogui::Color>>::_Vector_impl_data" = type { ptr, ptr, ptr }
%"class.nanogui::ref" = type { ptr }

; Function Attrs: mustprogress nounwind uwtable
define linkonce_odr hidden void @_ZN7nanogui5ArrayIiLm2EEC2ILm2ETnNSt9enable_ifIXeqT_Li2EEiE4typeELi0EEEii(ptr noundef nonnull align 4 dereferenceable(8) %0, i32 noundef %1, i32 noundef %2) unnamed_addr #1 comdat align 2 {
  %4 = alloca ptr, align 8
  %5 = alloca i32, align 4
  %6 = alloca i32, align 4
  store ptr %0, ptr %4, align 8
  store i32 %1, ptr %5, align 4
  store i32 %2, ptr %6, align 4
  %7 = load ptr, ptr %4, align 8
  %8 = load i32, ptr %5, align 4
  %9 = getelementptr inbounds %"struct.nanogui::Array", ptr %7, i32 0, i32 0
  %10 = getelementptr inbounds [2 x i32], ptr %9, i64 0, i64 0
  store i32 %8, ptr %10, align 4
  %11 = load i32, ptr %6, align 4
  %12 = getelementptr inbounds %"struct.nanogui::Array", ptr %7, i32 0, i32 0
  %13 = getelementptr inbounds [2 x i32], ptr %12, i64 0, i64 1
  store i32 %11, ptr %13, align 4
  ret void
}

; Function Attrs: mustprogress nounwind uwtable
define linkonce_odr hidden noundef ptr @_ZN7nanogui3refINS_6ObjectEEcvPS1_Ev(ptr noundef nonnull align 8 dereferenceable(8) %0) #1 comdat align 2 {
  %2 = alloca ptr, align 8
  store ptr %0, ptr %2, align 8
  %3 = load ptr, ptr %2, align 8
  %4 = getelementptr inbounds %"class.nanogui::ref", ptr %3, i32 0, i32 0
  %5 = load ptr, ptr %4, align 8
  ret ptr %5
}

; Function Attrs: mustprogress uwtable
define hidden void @_ZN7nanogui10RenderPass3endEv(ptr noundef nonnull align 8 dereferenceable(173) %0) #0 align 2 {
  %2 = alloca ptr, align 8
  %3 = alloca %"struct.nanogui::Array", align 4
  %4 = alloca %"struct.nanogui::Array", align 4
  store ptr %0, ptr %2, align 8
  %5 = load ptr, ptr %2, align 8
  call void @glBindFramebuffer(i32 noundef 36160, i32 noundef 0)
  %6 = getelementptr inbounds %"class.nanogui::RenderPass", ptr %5, i32 0, i32 17
  %7 = call noundef ptr @_ZN7nanogui3refINS_6ObjectEEcvPS1_Ev(ptr noundef nonnull align 8 dereferenceable(8) %6)
  %8 = icmp ne ptr %7, null
  br i1 %8, label %9, label %13

9:                                                ; preds = %1
  call void @_ZN7nanogui5ArrayIiLm2EEC2ILm2ETnNSt9enable_ifIXeqT_Li2EEiE4typeELi0EEEii(ptr noundef nonnull align 4 dereferenceable(8) %3, i32 noundef 0, i32 noundef 0)
  %10 = getelementptr inbounds %"class.nanogui::RenderPass", ptr %5, i32 0, i32 11
  %11 = getelementptr inbounds %"class.nanogui::RenderPass", ptr %5, i32 0, i32 17
  %12 = call noundef ptr @_ZN7nanogui3refINS_6ObjectEEcvPS1_Ev(ptr noundef nonnull align 8 dereferenceable(8) %11)
  call void @_ZN7nanogui5ArrayIiLm2EEC2ILm2ETnNSt9enable_ifIXeqT_Li2EEiE4typeELi0EEEii(ptr noundef nonnull align 4 dereferenceable(8) %4, i32 noundef 0, i32 noundef 0)
  call void @_ZN7nanogui10RenderPass7blit_toERKNS_5ArrayIiLm2EEES4_PNS_6ObjectES4_(ptr noundef nonnull align 8 dereferenceable(173) %5, ptr noundef nonnull align 4 dereferenceable(8) %3, ptr noundef nonnull align 4 dereferenceable(8) %10, ptr noundef %12, ptr noundef nonnull align 4 dereferenceable(8) %4)
  br label %13

13:                                               ; preds = %9, %1
  %14 = getelementptr inbounds %"class.nanogui::RenderPass", ptr %5, i32 0, i32 21
  %15 = getelementptr inbounds [4 x i32], ptr %14, i64 0, i64 0
  %16 = load i32, ptr %15, align 8
  %17 = getelementptr inbounds %"class.nanogui::RenderPass", ptr %5, i32 0, i32 21
  %18 = getelementptr inbounds [4 x i32], ptr %17, i64 0, i64 1
  %19 = load i32, ptr %18, align 4
  %20 = getelementptr inbounds %"class.nanogui::RenderPass", ptr %5, i32 0, i32 21
  %21 = getelementptr inbounds [4 x i32], ptr %20, i64 0, i64 2
  %22 = load i32, ptr %21, align 8
  %23 = getelementptr inbounds %"class.nanogui::RenderPass", ptr %5, i32 0, i32 21
  %24 = getelementptr inbounds [4 x i32], ptr %23, i64 0, i64 3
  %25 = load i32, ptr %24, align 4
  call void @glViewport(i32 noundef %16, i32 noundef %19, i32 noundef %22, i32 noundef %25)
  %26 = getelementptr inbounds %"class.nanogui::RenderPass", ptr %5, i32 0, i32 22
  %27 = getelementptr inbounds [4 x i32], ptr %26, i64 0, i64 0
  %28 = load i32, ptr %27, align 8
  %29 = getelementptr inbounds %"class.nanogui::RenderPass", ptr %5, i32 0, i32 22
  %30 = getelementptr inbounds [4 x i32], ptr %29, i64 0, i64 1
  %31 = load i32, ptr %30, align 4
  %32 = getelementptr inbounds %"class.nanogui::RenderPass", ptr %5, i32 0, i32 22
  %33 = getelementptr inbounds [4 x i32], ptr %32, i64 0, i64 2
  %34 = load i32, ptr %33, align 8
  %35 = getelementptr inbounds %"class.nanogui::RenderPass", ptr %5, i32 0, i32 22
  %36 = getelementptr inbounds [4 x i32], ptr %35, i64 0, i64 3
  %37 = load i32, ptr %36, align 4
  call void @glScissor(i32 noundef %28, i32 noundef %31, i32 noundef %34, i32 noundef %37)
  %38 = getelementptr inbounds %"class.nanogui::RenderPass", ptr %5, i32 0, i32 23
  %39 = load i8, ptr %38, align 8
  %40 = trunc i8 %39 to i1
  br i1 %40, label %41, label %42

41:                                               ; preds = %13
  call void @glEnable(i32 noundef 2929)
  br label %43

42:                                               ; preds = %13
  call void @glDisable(i32 noundef 2929)
  br label %43

43:                                               ; preds = %42, %41
  %44 = getelementptr inbounds %"class.nanogui::RenderPass", ptr %5, i32 0, i32 24
  %45 = load i8, ptr %44, align 1
  %46 = trunc i8 %45 to i1
  %47 = zext i1 %46 to i8
  call void @glDepthMask(i8 noundef zeroext %47)
  %48 = getelementptr inbounds %"class.nanogui::RenderPass", ptr %5, i32 0, i32 25
  %49 = load i8, ptr %48, align 2
  %50 = trunc i8 %49 to i1
  br i1 %50, label %51, label %52

51:                                               ; preds = %43
  call void @glEnable(i32 noundef 3089)
  br label %53

52:                                               ; preds = %43
  call void @glDisable(i32 noundef 3089)
  br label %53

53:                                               ; preds = %52, %51
  %54 = getelementptr inbounds %"class.nanogui::RenderPass", ptr %5, i32 0, i32 26
  %55 = load i8, ptr %54, align 1
  %56 = trunc i8 %55 to i1
  br i1 %56, label %57, label %58

57:                                               ; preds = %53
  call void @glEnable(i32 noundef 2884)
  br label %59

58:                                               ; preds = %53
  call void @glDisable(i32 noundef 2884)
  br label %59

59:                                               ; preds = %58, %57
  %60 = getelementptr inbounds %"class.nanogui::RenderPass", ptr %5, i32 0, i32 27
  %61 = load i8, ptr %60, align 4
  %62 = trunc i8 %61 to i1
  br i1 %62, label %63, label %64

63:                                               ; preds = %59
  call void @glEnable(i32 noundef 3042)
  br label %65

64:                                               ; preds = %59
  call void @glDisable(i32 noundef 3042)
  br label %65

65:                                               ; preds = %64, %63
  %66 = getelementptr inbounds %"class.nanogui::RenderPass", ptr %5, i32 0, i32 18
  store i8 0, ptr %66, align 8
  ret void
}