; Function Attrs: mustprogress uwtable
define hidden void @_ZN7nanogui10RenderPass3endEv(ptr nocapture noundef nonnull align 8 dereferenceable(173) %0) local_unnamed_addr #5 align 2 {
  %2 = alloca %"struct.nanogui::Array", align 4
  %3 = alloca %"struct.nanogui::Array", align 4
  tail call void @glBindFramebuffer(i32 noundef 36160, i32 noundef 0)
  %4 = getelementptr inbounds i8, ptr %0, i64 120
  %5 = load ptr, ptr %4, align 8
  %.not = icmp eq ptr %5, null
  br i1 %.not, label %10, label %6

6:                                                ; preds = %1
  store i32 0, ptr %2, align 4
  %7 = getelementptr inbounds i8, ptr %2, i64 4
  store i32 0, ptr %7, align 4
  %8 = getelementptr inbounds i8, ptr %0, i64 96
  store i32 0, ptr %3, align 4
  %9 = getelementptr inbounds i8, ptr %3, i64 4
  store i32 0, ptr %9, align 4
  call void @_ZN7nanogui10RenderPass7blit_toERKNS_5ArrayIiLm2EEES4_PNS_6ObjectES4_(ptr noundef nonnull align 8 dereferenceable(173) %0, ptr noundef nonnull align 4 dereferenceable(8) %2, ptr noundef nonnull align 4 dereferenceable(8) %8, ptr noundef nonnull %5, ptr noundef nonnull align 4 dereferenceable(8) %3)
  br label %10

10:                                               ; preds = %6, %1
  %11 = getelementptr inbounds i8, ptr %0, i64 136
  %12 = load i32, ptr %11, align 8
  %13 = getelementptr inbounds i8, ptr %0, i64 140
  %14 = load i32, ptr %13, align 4
  %15 = getelementptr inbounds i8, ptr %0, i64 144
  %16 = load i32, ptr %15, align 8
  %17 = getelementptr inbounds i8, ptr %0, i64 148
  %18 = load i32, ptr %17, align 4
  tail call void @glViewport(i32 noundef %12, i32 noundef %14, i32 noundef %16, i32 noundef %18)
  %19 = getelementptr inbounds i8, ptr %0, i64 152
  %20 = load i32, ptr %19, align 8
  %21 = getelementptr inbounds i8, ptr %0, i64 156
  %22 = load i32, ptr %21, align 4
  %23 = getelementptr inbounds i8, ptr %0, i64 160
  %24 = load i32, ptr %23, align 8
  %25 = getelementptr inbounds i8, ptr %0, i64 164
  %26 = load i32, ptr %25, align 4
  tail call void @glScissor(i32 noundef %20, i32 noundef %22, i32 noundef %24, i32 noundef %26)
  %27 = getelementptr inbounds i8, ptr %0, i64 168
  %28 = load i8, ptr %27, align 8
  %29 = and i8 %28, 1
  %.not1 = icmp eq i8 %29, 0
  br i1 %.not1, label %31, label %30

30:                                               ; preds = %10
  tail call void @glEnable(i32 noundef 2929)
  br label %32

31:                                               ; preds = %10
  tail call void @glDisable(i32 noundef 2929)
  br label %32

32:                                               ; preds = %31, %30
  %33 = getelementptr inbounds i8, ptr %0, i64 169
  %34 = load i8, ptr %33, align 1
  %35 = and i8 %34, 1
  tail call void @glDepthMask(i8 noundef zeroext %35)
  %36 = getelementptr inbounds i8, ptr %0, i64 170
  %37 = load i8, ptr %36, align 2
  %38 = and i8 %37, 1
  %.not2 = icmp eq i8 %38, 0
  br i1 %.not2, label %40, label %39

39:                                               ; preds = %32
  tail call void @glEnable(i32 noundef 3089)
  br label %41

40:                                               ; preds = %32
  tail call void @glDisable(i32 noundef 3089)
  br label %41

41:                                               ; preds = %40, %39
  %42 = getelementptr inbounds i8, ptr %0, i64 171
  %43 = load i8, ptr %42, align 1
  %44 = and i8 %43, 1
  %.not3 = icmp eq i8 %44, 0
  br i1 %.not3, label %46, label %45

45:                                               ; preds = %41
  tail call void @glEnable(i32 noundef 2884)
  br label %47

46:                                               ; preds = %41
  tail call void @glDisable(i32 noundef 2884)
  br label %47

47:                                               ; preds = %46, %45
  %48 = getelementptr inbounds i8, ptr %0, i64 172
  %49 = load i8, ptr %48, align 4
  %50 = and i8 %49, 1
  %.not4 = icmp eq i8 %50, 0
  br i1 %.not4, label %52, label %51

51:                                               ; preds = %47
  tail call void @glEnable(i32 noundef 3042)
  br label %53

52:                                               ; preds = %47
  tail call void @glDisable(i32 noundef 3042)
  br label %53

53:                                               ; preds = %52, %51
  %54 = getelementptr inbounds i8, ptr %0, i64 128
  store i8 0, ptr %54, align 8
  ret void
}